target datalayout = "e-m:e-p270:32:32-p271:32:32-p272:64:64-i64:64-i128:128-f80:128-n8:16:32:64-S128"
target triple = "x86_64-pc-linux-gnu"

%struct.mempool_s = type { i64, i64, i64, i64, i8, ptr, ptr, ptr, ptr, %struct.sq_queue_s, %struct.sq_queue_s, %struct.sq_queue_s, i64, i8, %struct.sem_s, %struct.mempool_procfs_entry_s }
%struct.sq_queue_s = type { ptr, ptr }
%struct.sem_s = type { i16, i8, %struct.dq_queue_s, ptr }
%struct.dq_queue_s = type { ptr, ptr }
%struct.mempool_procfs_entry_s = type { ptr, ptr }
%struct.sq_entry_s = type { ptr }
%struct.mempoolinfo_s = type { i64, i64, i64, i64, i64, i64 }

; Function Attrs: nounwind uwtable
define internal void @up_irq_enable() #0 {
  call void asm sideeffect "sti", "~{memory},~{dirflag},~{fpsr},~{flags}"() #3, !srcloc !14
  ret void
}

; Function Attrs: nounwind uwtable
define internal zeroext i1 @up_irq_enabled(i64 noundef %0) #0 {
  %2 = alloca i64, align 8
  store i64 %0, ptr %2, align 8
  %3 = load i64, ptr %2, align 8
  %4 = and i64 %3, 512
  %5 = icmp ne i64 %4, 0
  ret i1 %5
}

; Function Attrs: nounwind uwtable
define internal void @up_irq_disable() #0 {
  call void asm sideeffect "cli", "~{memory},~{dirflag},~{fpsr},~{flags}"() #3, !srcloc !12
  ret void
}

; Function Attrs: nounwind uwtable
define internal i64 @irqflags() #0 {
  %1 = alloca i64, align 8
  call void asm sideeffect "\09pushfq\0A\09popq $0\0A", "=*rm,~{memory},~{dirflag},~{fpsr},~{flags}"(ptr elementtype(i64) %1) #3, !srcloc !13
  %2 = load i64, ptr %1, align 8
  ret i64 %2
}

; Function Attrs: nounwind uwtable
define internal void @up_irq_restore(i64 noundef %0) #0 {
  %2 = alloca i64, align 8
  store i64 %0, ptr %2, align 8
  %3 = load i64, ptr %2, align 8
  %4 = call zeroext i1 @up_irq_enabled(i64 noundef %3)
  br i1 %4, label %5, label %6

5:                                                ; preds = %1
  call void @up_irq_enable()
  br label %6

6:                                                ; preds = %5, %1
  ret void
}

; Function Attrs: nounwind uwtable
define internal i64 @mempool_queue_lenth(ptr noundef %0) #0 {
  %2 = alloca ptr, align 8
  %3 = alloca ptr, align 8
  %4 = alloca i64, align 8
  store ptr %0, ptr %2, align 8
  %5 = load ptr, ptr %2, align 8
  %6 = getelementptr inbounds %struct.sq_queue_s, ptr %5, i32 0, i32 0
  %7 = load ptr, ptr %6, align 8
  store ptr %7, ptr %3, align 8
  store i64 0, ptr %4, align 8
  br label %8

8:                                                ; preds = %12, %1
  %9 = load ptr, ptr %3, align 8
  %10 = icmp ne ptr %9, null
  br i1 %10, label %11, label %18

11:                                               ; preds = %8
  br label %12

12:                                               ; preds = %11
  %13 = load ptr, ptr %3, align 8
  %14 = getelementptr inbounds %struct.sq_entry_s, ptr %13, i32 0, i32 0
  %15 = load ptr, ptr %14, align 8
  store ptr %15, ptr %3, align 8
  %16 = load i64, ptr %4, align 8
  %17 = add i64 %16, 1
  store i64 %17, ptr %4, align 8
  br label %8, !llvm.loop !8

18:                                               ; preds = %8
  %19 = load i64, ptr %4, align 8
  ret i64 %19
}

; Function Attrs: nounwind uwtable
define internal i64 @up_irq_save() #0 {
  %1 = alloca i64, align 8
  %2 = call i64 @irqflags()
  store i64 %2, ptr %1, align 8
  call void @up_irq_disable()
  %3 = load i64, ptr %1, align 8
  ret i64 %3
}

; Function Attrs: nounwind uwtable
define i32 @mempool_info(ptr noundef %0, ptr noundef %1) #0 {
  %3 = alloca ptr, align 8
  %4 = alloca ptr, align 8
  %5 = alloca i64, align 8
  %6 = alloca i64, align 8
  %7 = alloca i32, align 4
  store ptr %0, ptr %3, align 8
  store ptr %1, ptr %4, align 8
  %8 = load ptr, ptr %3, align 8
  %9 = getelementptr inbounds %struct.mempool_s, ptr %8, i32 0, i32 0
  %10 = load i64, ptr %9, align 8
  store i64 %10, ptr %5, align 8
  %11 = call i64 @up_irq_save()
  store i64 %11, ptr %6, align 8
  %12 = load ptr, ptr %3, align 8
  %13 = getelementptr inbounds %struct.mempool_s, ptr %12, i32 0, i32 9
  %14 = call i64 @mempool_queue_lenth(ptr noundef %13)
  %15 = load ptr, ptr %4, align 8
  %16 = getelementptr inbounds %struct.mempoolinfo_s, ptr %15, i32 0, i32 1
  store i64 %14, ptr %16, align 8
  %17 = load ptr, ptr %3, align 8
  %18 = getelementptr inbounds %struct.mempool_s, ptr %17, i32 0, i32 10
  %19 = call i64 @mempool_queue_lenth(ptr noundef %18)
  %20 = load ptr, ptr %4, align 8
  %21 = getelementptr inbounds %struct.mempoolinfo_s, ptr %20, i32 0, i32 2
  store i64 %19, ptr %21, align 8
  %22 = load ptr, ptr %3, align 8
  %23 = getelementptr inbounds %struct.mempool_s, ptr %22, i32 0, i32 12
  %24 = load i64, ptr %23, align 8
  %25 = load ptr, ptr %4, align 8
  %26 = getelementptr inbounds %struct.mempoolinfo_s, ptr %25, i32 0, i32 3
  store i64 %24, ptr %26, align 8
  %27 = load ptr, ptr %3, align 8
  %28 = getelementptr inbounds %struct.mempool_s, ptr %27, i32 0, i32 11
  %29 = call i64 @mempool_queue_lenth(ptr noundef %28)
  %30 = mul i64 %29, 8
  %31 = load ptr, ptr %4, align 8
  %32 = getelementptr inbounds %struct.mempoolinfo_s, ptr %31, i32 0, i32 3
  %33 = load i64, ptr %32, align 8
  %34 = load ptr, ptr %4, align 8
  %35 = getelementptr inbounds %struct.mempoolinfo_s, ptr %34, i32 0, i32 1
  %36 = load i64, ptr %35, align 8
  %37 = add i64 %33, %36
  %38 = load ptr, ptr %4, align 8
  %39 = getelementptr inbounds %struct.mempoolinfo_s, ptr %38, i32 0, i32 2
  %40 = load i64, ptr %39, align 8
  %41 = add i64 %37, %40
  %42 = load i64, ptr %5, align 8
  %43 = mul i64 %41, %42
  %44 = add i64 %30, %43
  %45 = load ptr, ptr %4, align 8
  %46 = getelementptr inbounds %struct.mempoolinfo_s, ptr %45, i32 0, i32 0
  store i64 %44, ptr %46, align 8
  %47 = load i64, ptr %6, align 8
  call void @up_irq_restore(i64 noundef %47)
  %48 = load i64, ptr %5, align 8
  %49 = load ptr, ptr %4, align 8
  %50 = getelementptr inbounds %struct.mempoolinfo_s, ptr %49, i32 0, i32 4
  store i64 %48, ptr %50, align 8
  %51 = load ptr, ptr %3, align 8
  %52 = getelementptr inbounds %struct.mempool_s, ptr %51, i32 0, i32 4
  %53 = load i8, ptr %52, align 8
  %54 = trunc i8 %53 to i1
  br i1 %54, label %55, label %69

55:                                               ; preds = %2
  %56 = load ptr, ptr %3, align 8
  %57 = getelementptr inbounds %struct.mempool_s, ptr %56, i32 0, i32 3
  %58 = load i64, ptr %57, align 8
  %59 = icmp eq i64 %58, 0
  br i1 %59, label %60, label %69

60:                                               ; preds = %55
  %61 = load ptr, ptr %3, align 8
  %62 = getelementptr inbounds %struct.mempool_s, ptr %61, i32 0, i32 14
  %63 = call i32 @nxsem_get_value(ptr noundef %62, ptr noundef %7)
  %64 = load i32, ptr %7, align 4
  %65 = sub nsw i32 0, %64
  %66 = sext i32 %65 to i64
  %67 = load ptr, ptr %4, align 8
  %68 = getelementptr inbounds %struct.mempoolinfo_s, ptr %67, i32 0, i32 5
  store i64 %66, ptr %68, align 8
  br label %72

69:                                               ; preds = %55, %2
  %70 = load ptr, ptr %4, align 8
  %71 = getelementptr inbounds %struct.mempoolinfo_s, ptr %70, i32 0, i32 5
  store i64 0, ptr %71, align 8
  br label %72

72:                                               ; preds = %69, %60
  ret i32 0
}