; Function Attrs: nounwind uwtable
define noundef i32 @mempool_info(ptr noundef %0, ptr noundef writeonly captures(none) %1) local_unnamed_addr #0 {
  %3 = alloca i64, align 8
  %4 = alloca i32, align 4
  %5 = load i64, ptr %0, align 8
  call void @llvm.lifetime.start.p0(i64 8, ptr nonnull %3)
  call void asm sideeffect "\09pushfq\0A\09popq $0\0A", "=*rm,~{memory},~{dirflag},~{fpsr},~{flags}"(ptr nonnull elementtype(i64) %3) #4, !srcloc !8
  %6 = load i64, ptr %3, align 8
  call void @llvm.lifetime.end.p0(i64 8, ptr nonnull %3)
  call void asm sideeffect "cli", "~{memory},~{dirflag},~{fpsr},~{flags}"() #4, !srcloc !9
  %7 = getelementptr inbounds nuw i8, ptr %0, i64 72
  br label %8

8:                                                ; preds = %8, %2
  %.04.in.i = phi ptr [ %7, %2 ], [ %.04.i, %8 ]
  %.0.i = phi i64 [ 0, %2 ], [ %9, %8 ]
  %.04.i = load ptr, ptr %.04.in.i, align 8
  %.not.i = icmp eq ptr %.04.i, null
  %9 = add i64 %.0.i, 1
  br i1 %.not.i, label %mempool_queue_lenth.exit, label %8, !llvm.loop !11

mempool_queue_lenth.exit:                         ; preds = %8
  %10 = getelementptr inbounds nuw i8, ptr %1, i64 8
  store i64 %.0.i, ptr %10, align 8
  %11 = getelementptr inbounds nuw i8, ptr %0, i64 88
  br label %12

12:                                               ; preds = %12, %mempool_queue_lenth.exit
  %.04.in.i20 = phi ptr [ %11, %mempool_queue_lenth.exit ], [ %.04.i22, %12 ]
  %.0.i21 = phi i64 [ 0, %mempool_queue_lenth.exit ], [ %13, %12 ]
  %.04.i22 = load ptr, ptr %.04.in.i20, align 8
  %.not.i23 = icmp eq ptr %.04.i22, null
  %13 = add i64 %.0.i21, 1
  br i1 %.not.i23, label %mempool_queue_lenth.exit24, label %12, !llvm.loop !11

mempool_queue_lenth.exit24:                       ; preds = %12
  %14 = getelementptr inbounds nuw i8, ptr %1, i64 16
  store i64 %.0.i21, ptr %14, align 8
  %15 = getelementptr inbounds nuw i8, ptr %0, i64 120
  %16 = load i64, ptr %15, align 8
  %17 = getelementptr inbounds nuw i8, ptr %1, i64 24
  store i64 %16, ptr %17, align 8
  %18 = getelementptr inbounds nuw i8, ptr %0, i64 104
  br label %19

19:                                               ; preds = %19, %mempool_queue_lenth.exit24
  %.04.in.i25 = phi ptr [ %18, %mempool_queue_lenth.exit24 ], [ %.04.i27, %19 ]
  %.0.i26 = phi i64 [ 0, %mempool_queue_lenth.exit24 ], [ %20, %19 ]
  %.04.i27 = load ptr, ptr %.04.in.i25, align 8
  %.not.i28 = icmp eq ptr %.04.i27, null
  %20 = add i64 %.0.i26, 1
  br i1 %.not.i28, label %mempool_queue_lenth.exit29, label %19, !llvm.loop !11

mempool_queue_lenth.exit29:                       ; preds = %19
  %21 = shl i64 %.0.i26, 3
  %22 = add i64 %.0.i21, %.0.i
  %23 = add i64 %22, %16
  %24 = mul i64 %23, %5
  %25 = add i64 %21, %24
  store i64 %25, ptr %1, align 8
  %26 = and i64 %6, 512
  %.not.i30 = icmp eq i64 %26, 0
  br i1 %.not.i30, label %up_irq_restore.exit, label %27

27:                                               ; preds = %mempool_queue_lenth.exit29
  call void asm sideeffect "sti", "~{memory},~{dirflag},~{fpsr},~{flags}"() #4, !srcloc !10
  br label %up_irq_restore.exit

up_irq_restore.exit:                              ; preds = %mempool_queue_lenth.exit29, %27
  %28 = getelementptr inbounds nuw i8, ptr %1, i64 32
  store i64 %5, ptr %28, align 8
  %29 = getelementptr inbounds nuw i8, ptr %0, i64 32
  %30 = load i8, ptr %29, align 8
  %31 = trunc i8 %30 to i1
  br i1 %31, label %32, label %42

32:                                               ; preds = %up_irq_restore.exit
  %33 = getelementptr inbounds nuw i8, ptr %0, i64 24
  %34 = load i64, ptr %33, align 8
  %35 = icmp eq i64 %34, 0
  br i1 %35, label %36, label %42

36:                                               ; preds = %32
  %37 = getelementptr inbounds nuw i8, ptr %0, i64 136
  %38 = call i32 @nxsem_get_value(ptr noundef nonnull %37, ptr noundef nonnull %4) #4
  %39 = load i32, ptr %4, align 4
  %40 = sub nsw i32 0, %39
  %41 = sext i32 %40 to i64
  br label %42

42:                                               ; preds = %up_irq_restore.exit, %32, %36
  %.sink = phi i64 [ %41, %36 ], [ 0, %32 ], [ 0, %up_irq_restore.exit ]
  %43 = getelementptr inbounds nuw i8, ptr %1, i64 40
  store i64 %.sink, ptr %43, align 8
  ret i32 0
}